; Function Attrs: mustprogress uwtable
define noundef zeroext i1 @_ZN6google8protobuf8compiler20CommandLineInterface29MakeInputsBeProtoPathRelativeEPNS1_14DiskSourceTreeEPNS0_18DescriptorDatabaseE(ptr nocapture noundef nonnull readonly align 8 dereferenceable(574) %this, ptr noundef %source_tree, ptr noundef %fallback_database) local_unnamed_addr #5 align 2 {
entry:
  %input_files_ = getelementptr inbounds i8, ptr %this, i64 288
  %0 = load ptr, ptr %input_files_, align 8
  %_M_finish.i = getelementptr inbounds i8, ptr %this, i64 296
  %1 = load ptr, ptr %_M_finish.i, align 8
  %cmp.i.not4 = icmp eq ptr %0, %1
  br i1 %cmp.i.not4, label %return, label %for.body

for.body:                                         ; preds = %entry, %for.body
  %__begin2.sroa.0.05 = phi ptr [ %incdec.ptr.i, %for.body ], [ %0, %entry ]
  %call6 = tail call noundef zeroext i1 @_ZN6google8protobuf8compiler20CommandLineInterface26MakeProtoProtoPathRelativeEPNS1_14DiskSourceTreeEPNSt7__cxx1112basic_stringIcSt11char_traitsIcESaIcEEEPNS0_18DescriptorDatabaseE(ptr nonnull align 8 poison, ptr noundef %source_tree, ptr noundef nonnull %__begin2.sroa.0.05, ptr noundef %fallback_database)
  %incdec.ptr.i = getelementptr inbounds i8, ptr %__begin2.sroa.0.05, i64 32
  %cmp.i.not = icmp ne ptr %incdec.ptr.i, %1
  %or.cond.not = select i1 %call6, i1 %cmp.i.not, i1 false
  br i1 %or.cond.not, label %for.body, label %return

return:                                           ; preds = %for.body, %entry
  %cmp.i.not.lcssa = phi i1 [ true, %entry ], [ %call6, %for.body ]
  ret i1 %cmp.i.not.lcssa
}